target datalayout = "e-m:e-p270:32:32-p271:32:32-p272:64:64-i64:64-i128:128-f80:128-n8:16:32:64-S128"
target triple = "x86_64-pc-linux-gnu"

@.str.17 = private unnamed_addr constant [5 x i8] c"none\00", align 1
@.str.19 = private unnamed_addr constant [5 x i8] c"mc30\00", align 1
@.str.21 = private unnamed_addr constant [5 x i8] c"mc64\00", align 1
@.str.23 = private unnamed_addr constant [5 x i8] c"mc77\00", align 1

; Function Attrs: inlinehint mustprogress nounwind uwtable
define linkonce_odr noundef zeroext i1 @_ZSteqIcSt11char_traitsIcESaIcEEbRKNSt7__cxx1112basic_stringIT_T0_T1_EEPKS5_(ptr noundef nonnull align 8 dereferenceable(32) %0, ptr noundef %1) #9 comdat {
  %3 = alloca ptr, align 8
  %4 = alloca ptr, align 8
  store ptr %0, ptr %3, align 8, !tbaa !42
  store ptr %1, ptr %4, align 8, !tbaa !44
  %5 = load ptr, ptr %3, align 8, !tbaa !42
  %6 = load ptr, ptr %4, align 8, !tbaa !44
  %7 = call noundef i32 @_ZNKSt7__cxx1112basic_stringIcSt11char_traitsIcESaIcEE7compareEPKc(ptr noundef nonnull align 8 dereferenceable(32) %5, ptr noundef %6) #3
  %8 = icmp eq i32 %7, 0
  ret i1 %8
}

; Function Attrs: mustprogress uwtable
define noundef i32 @_ZN5Ipopt19Ma97SolverInterface14ScaleNameToNumERKNSt7__cxx1112basic_stringIcSt11char_traitsIcESaIcEEE(ptr noundef nonnull align 8 dereferenceable(32) %0) #7 align 2 {
  %2 = alloca i32, align 4
  %3 = alloca ptr, align 8
  store ptr %0, ptr %3, align 8, !tbaa !42
  %4 = load ptr, ptr %3, align 8, !tbaa !42
  %5 = call noundef zeroext i1 @_ZSteqIcSt11char_traitsIcESaIcEEbRKNSt7__cxx1112basic_stringIT_T0_T1_EEPKS5_(ptr noundef nonnull align 8 dereferenceable(32) %4, ptr noundef @.str.17)
  br i1 %5, label %6, label %7

6:                                                ; preds = %1
  store i32 0, ptr %2, align 4
  br label %20

7:                                                ; preds = %1
  %8 = load ptr, ptr %3, align 8, !tbaa !42
  %9 = call noundef zeroext i1 @_ZSteqIcSt11char_traitsIcESaIcEEbRKNSt7__cxx1112basic_stringIT_T0_T1_EEPKS5_(ptr noundef nonnull align 8 dereferenceable(32) %8, ptr noundef @.str.21)
  br i1 %9, label %10, label %11

10:                                               ; preds = %7
  store i32 1, ptr %2, align 4
  br label %20

11:                                               ; preds = %7
  %12 = load ptr, ptr %3, align 8, !tbaa !42
  %13 = call noundef zeroext i1 @_ZSteqIcSt11char_traitsIcESaIcEEbRKNSt7__cxx1112basic_stringIT_T0_T1_EEPKS5_(ptr noundef nonnull align 8 dereferenceable(32) %12, ptr noundef @.str.23)
  br i1 %13, label %14, label %15

14:                                               ; preds = %11
  store i32 2, ptr %2, align 4
  br label %20

15:                                               ; preds = %11
  %16 = load ptr, ptr %3, align 8, !tbaa !42
  %17 = call noundef zeroext i1 @_ZSteqIcSt11char_traitsIcESaIcEEbRKNSt7__cxx1112basic_stringIT_T0_T1_EEPKS5_(ptr noundef nonnull align 8 dereferenceable(32) %16, ptr noundef @.str.19)
  br i1 %17, label %18, label %19

18:                                               ; preds = %15
  store i32 4, ptr %2, align 4
  br label %20

19:                                               ; preds = %15
  store i32 -1, ptr %2, align 4
  br label %20

20:                                               ; preds = %19, %18, %14, %10, %6
  %21 = load i32, ptr %2, align 4
  ret i32 %21
}