; Function Attrs: mustprogress nounwind uwtable
define noundef range(i32 -1, 5) i32 @_ZN5Ipopt19Ma97SolverInterface14ScaleNameToNumERKNSt7__cxx1112basic_stringIcSt11char_traitsIcESaIcEEE(ptr noundef nonnull align 8 dereferenceable(32) %0) local_unnamed_addr #3 align 2 {
  %2 = tail call noundef i32 @_ZNKSt7__cxx1112basic_stringIcSt11char_traitsIcESaIcEE7compareEPKc(ptr noundef nonnull align 8 dereferenceable(32) %0, ptr noundef nonnull @.str.17) #17
  %3 = icmp eq i32 %2, 0
  br i1 %3, label %13, label %4

4:                                                ; preds = %1
  %5 = tail call noundef i32 @_ZNKSt7__cxx1112basic_stringIcSt11char_traitsIcESaIcEE7compareEPKc(ptr noundef nonnull align 8 dereferenceable(32) %0, ptr noundef nonnull @.str.21) #17
  %6 = icmp eq i32 %5, 0
  br i1 %6, label %13, label %7

7:                                                ; preds = %4
  %8 = tail call noundef i32 @_ZNKSt7__cxx1112basic_stringIcSt11char_traitsIcESaIcEE7compareEPKc(ptr noundef nonnull align 8 dereferenceable(32) %0, ptr noundef nonnull @.str.23) #17
  %9 = icmp eq i32 %8, 0
  br i1 %9, label %13, label %10

10:                                               ; preds = %7
  %11 = tail call noundef i32 @_ZNKSt7__cxx1112basic_stringIcSt11char_traitsIcESaIcEE7compareEPKc(ptr noundef nonnull align 8 dereferenceable(32) %0, ptr noundef nonnull @.str.19) #17
  %12 = icmp eq i32 %11, 0
  %. = select i1 %12, i32 4, i32 -1
  br label %13

13:                                               ; preds = %10, %7, %4, %1
  %.0 = phi i32 [ 0, %1 ], [ 1, %4 ], [ 2, %7 ], [ %., %10 ]
  ret i32 %.0
}